; ModuleID = '38/1455.c'
source_filename = "38/1455.c"
target datalayout = "e-m:e-p270:32:32-p271:32:32-p272:64:64-i64:64-f80:128-n8:16:32:64-S128"
target triple = "x86_64-pc-linux-gnu"

@.str = private unnamed_addr constant [3 x i8] c"%d\00", align 1
@.str.1 = private unnamed_addr constant [4 x i8] c"%lf\00", align 1
@.str.2 = private unnamed_addr constant [7 x i8] c"%.5lf\0A\00", align 1

; Function Attrs: noinline nounwind uwtable
define dso_local i32 @main() #0 {
  %1 = alloca i32, align 4
  %2 = alloca i32, align 4
  %3 = alloca i32, align 4
  %4 = alloca [100 x i32], align 16
  %5 = alloca i32, align 4
  %6 = alloca double, align 8
  %7 = alloca double, align 8
  %8 = alloca double, align 8
  %9 = alloca [100 x double], align 16
  %10 = alloca [100 x double], align 16
  store i32 0, i32* %1, align 4
  store double 0.000000e+00, double* %6, align 8
  store double 0.000000e+00, double* %7, align 8
  store double 0.000000e+00, double* %8, align 8
  %11 = call i32 (i8*, ...) @__isoc99_scanf(i8* getelementptr inbounds ([3 x i8], [3 x i8]* @.str, i64 0, i64 0), i32* %2)
  store i32 0, i32* %3, align 4
  br label %12

12:                                               ; preds = %102, %0
  %13 = load i32, i32* %3, align 4
  %14 = load i32, i32* %2, align 4
  %15 = icmp slt i32 %13, %14
  br i1 %15, label %16, label %105

16:                                               ; preds = %12
  %17 = load i32, i32* %3, align 4
  %18 = sext i32 %17 to i64
  %19 = getelementptr inbounds [100 x i32], [100 x i32]* %4, i64 0, i64 %18
  %20 = call i32 (i8*, ...) @__isoc99_scanf(i8* getelementptr inbounds ([3 x i8], [3 x i8]* @.str, i64 0, i64 0), i32* %19)
  store i32 0, i32* %5, align 4
  br label %21

21:                                               ; preds = %33, %16
  %22 = load i32, i32* %5, align 4
  %23 = load i32, i32* %3, align 4
  %24 = sext i32 %23 to i64
  %25 = getelementptr inbounds [100 x i32], [100 x i32]* %4, i64 0, i64 %24
  %26 = load i32, i32* %25, align 4
  %27 = icmp slt i32 %22, %26
  br i1 %27, label %28, label %36

28:                                               ; preds = %21
  %29 = load i32, i32* %5, align 4
  %30 = sext i32 %29 to i64
  %31 = getelementptr inbounds [100 x double], [100 x double]* %10, i64 0, i64 %30
  %32 = call i32 (i8*, ...) @__isoc99_scanf(i8* getelementptr inbounds ([4 x i8], [4 x i8]* @.str.1, i64 0, i64 0), double* %31)
  br label %33

33:                                               ; preds = %28
  %34 = load i32, i32* %5, align 4
  %35 = add nsw i32 %34, 1
  store i32 %35, i32* %5, align 4
  br label %21

36:                                               ; preds = %21
  store double 0.000000e+00, double* %6, align 8
  store double 0.000000e+00, double* %8, align 8
  store i32 0, i32* %5, align 4
  br label %37

37:                                               ; preds = %51, %36
  %38 = load i32, i32* %5, align 4
  %39 = load i32, i32* %3, align 4
  %40 = sext i32 %39 to i64
  %41 = getelementptr inbounds [100 x i32], [100 x i32]* %4, i64 0, i64 %40
  %42 = load i32, i32* %41, align 4
  %43 = icmp slt i32 %38, %42
  br i1 %43, label %44, label %54

44:                                               ; preds = %37
  %45 = load i32, i32* %5, align 4
  %46 = sext i32 %45 to i64
  %47 = getelementptr inbounds [100 x double], [100 x double]* %10, i64 0, i64 %46
  %48 = load double, double* %47, align 8
  %49 = load double, double* %6, align 8
  %50 = fadd double %49, %48
  store double %50, double* %6, align 8
  br label %51

51:                                               ; preds = %44
  %52 = load i32, i32* %5, align 4
  %53 = add nsw i32 %52, 1
  store i32 %53, i32* %5, align 4
  br label %37

54:                                               ; preds = %37
  %55 = load double, double* %6, align 8
  %56 = load i32, i32* %3, align 4
  %57 = sext i32 %56 to i64
  %58 = getelementptr inbounds [100 x i32], [100 x i32]* %4, i64 0, i64 %57
  %59 = load i32, i32* %58, align 4
  %60 = sitofp i32 %59 to double
  %61 = fmul double %60, 1.000000e+00
  %62 = fdiv double %55, %61
  store double %62, double* %7, align 8
  store i32 0, i32* %5, align 4
  br label %63

63:                                               ; preds = %86, %54
  %64 = load i32, i32* %5, align 4
  %65 = load i32, i32* %3, align 4
  %66 = sext i32 %65 to i64
  %67 = getelementptr inbounds [100 x i32], [100 x i32]* %4, i64 0, i64 %66
  %68 = load i32, i32* %67, align 4
  %69 = icmp slt i32 %64, %68
  br i1 %69, label %70, label %89

70:                                               ; preds = %63
  %71 = load i32, i32* %5, align 4
  %72 = sext i32 %71 to i64
  %73 = getelementptr inbounds [100 x double], [100 x double]* %10, i64 0, i64 %72
  %74 = load double, double* %73, align 8
  %75 = load double, double* %7, align 8
  %76 = fsub double %74, %75
  %77 = load i32, i32* %5, align 4
  %78 = sext i32 %77 to i64
  %79 = getelementptr inbounds [100 x double], [100 x double]* %10, i64 0, i64 %78
  %80 = load double, double* %79, align 8
  %81 = load double, double* %7, align 8
  %82 = fsub double %80, %81
  %83 = fmul double %76, %82
  %84 = load double, double* %8, align 8
  %85 = fadd double %84, %83
  store double %85, double* %8, align 8
  br label %86

86:                                               ; preds = %70
  %87 = load i32, i32* %5, align 4
  %88 = add nsw i32 %87, 1
  store i32 %88, i32* %5, align 4
  br label %63

89:                                               ; preds = %63
  %90 = load double, double* %8, align 8
  %91 = load i32, i32* %3, align 4
  %92 = sext i32 %91 to i64
  %93 = getelementptr inbounds [100 x i32], [100 x i32]* %4, i64 0, i64 %92
  %94 = load i32, i32* %93, align 4
  %95 = sitofp i32 %94 to double
  %96 = fmul double %95, 1.000000e+00
  %97 = fdiv double %90, %96
  %98 = call double @sqrt(double %97) #3
  %99 = load i32, i32* %3, align 4
  %100 = sext i32 %99 to i64
  %101 = getelementptr inbounds [100 x double], [100 x double]* %9, i64 0, i64 %100
  store double %98, double* %101, align 8
  br label %102

102:                                              ; preds = %89
  %103 = load i32, i32* %3, align 4
  %104 = add nsw i32 %103, 1
  store i32 %104, i32* %3, align 4
  br label %12

105:                                              ; preds = %12
  store i32 0, i32* %3, align 4
  br label %106

106:                                              ; preds = %116, %105
  %107 = load i32, i32* %3, align 4
  %108 = load i32, i32* %2, align 4
  %109 = icmp slt i32 %107, %108
  br i1 %109, label %110, label %119

110:                                              ; preds = %106
  %111 = load i32, i32* %3, align 4
  %112 = sext i32 %111 to i64
  %113 = getelementptr inbounds [100 x double], [100 x double]* %9, i64 0, i64 %112
  %114 = load double, double* %113, align 8
  %115 = call i32 (i8*, ...) @printf(i8* getelementptr inbounds ([7 x i8], [7 x i8]* @.str.2, i64 0, i64 0), double %114)
  br label %116

116:                                              ; preds = %110
  %117 = load i32, i32* %3, align 4
  %118 = add nsw i32 %117, 1
  store i32 %118, i32* %3, align 4
  br label %106

119:                                              ; preds = %106
  ret i32 0
}

declare dso_local i32 @__isoc99_scanf(i8*, ...) #1

; Function Attrs: nounwind
declare dso_local double @sqrt(double) #2

declare dso_local i32 @printf(i8*, ...) #1


!llvm.module.flags = !{!0}
!llvm.ident = !{!1}

!0 = !{i32 1, !"wchar_size", i32 4}
!1 = !{!"clang version 10.0.0-4ubuntu1 "}
